target datalayout = "e-m:e-p270:32:32-p271:32:32-p272:64:64-i64:64-i128:128-f80:128-n8:16:32:64-S128"
target triple = "x86_64-unknown-linux-gnu"

%"class.hermes::vm::HermesValue" = type { i64 }
%"class.hermes::vm::CallResult" = type { i32, %"class.hermes::vm::HermesValue" }
%"class.std::reverse_iterator" = type { ptr }
%"class.hermes::vm::NativeArgs" = type { %"class.std::reverse_iterator", i32, ptr }

; Function Attrs: mustprogress nounwind uwtable
define linkonce_odr hidden void @_ZNSt16reverse_iteratorIPKN6hermes2vm17PinnedHermesValueEEC2ERKS5_(ptr noundef nonnull align 8 dereferenceable(8) %this, ptr noundef nonnull align 8 dereferenceable(8) %__x) unnamed_addr #0 comdat align 2 {
entry:
  %this.addr = alloca ptr, align 8
  %__x.addr = alloca ptr, align 8
  store ptr %this, ptr %this.addr, align 8
  store ptr %__x, ptr %__x.addr, align 8
  %this1 = load ptr, ptr %this.addr, align 8
  %current = getelementptr inbounds %"class.std::reverse_iterator", ptr %this1, i32 0, i32 0
  %0 = load ptr, ptr %__x.addr, align 8
  %current2 = getelementptr inbounds %"class.std::reverse_iterator", ptr %0, i32 0, i32 0
  %1 = load ptr, ptr %current2, align 8
  store ptr %1, ptr %current, align 8
  ret void
}

; Function Attrs: mustprogress nounwind uwtable
define linkonce_odr hidden void @_ZN6hermes2vm10NativeArgsC2ERKS1_(ptr noundef nonnull align 8 dereferenceable(24) %this, ptr noundef nonnull align 8 dereferenceable(24) %0) unnamed_addr #0 comdat align 2 {
entry:
  %this.addr = alloca ptr, align 8
  %.addr = alloca ptr, align 8
  store ptr %this, ptr %this.addr, align 8
  store ptr %0, ptr %.addr, align 8
  %this1 = load ptr, ptr %this.addr, align 8
  %firstArg_ = getelementptr inbounds %"class.hermes::vm::NativeArgs", ptr %this1, i32 0, i32 0
  %1 = load ptr, ptr %.addr, align 8
  %firstArg_2 = getelementptr inbounds %"class.hermes::vm::NativeArgs", ptr %1, i32 0, i32 0
  call void @_ZNSt16reverse_iteratorIPKN6hermes2vm17PinnedHermesValueEEC2ERKS5_(ptr noundef nonnull align 8 dereferenceable(8) %firstArg_, ptr noundef nonnull align 8 dereferenceable(8) %firstArg_2) #10
  %argCount_ = getelementptr inbounds %"class.hermes::vm::NativeArgs", ptr %this1, i32 0, i32 1
  %2 = load ptr, ptr %.addr, align 8
  %argCount_3 = getelementptr inbounds %"class.hermes::vm::NativeArgs", ptr %2, i32 0, i32 1
  call void @llvm.memcpy.p0.p0.i64(ptr align 8 %argCount_, ptr align 8 %argCount_3, i64 16, i1 false)
  ret void
}

; Function Attrs: mustprogress nounwind uwtable
define hidden { i32, i64 } @_ZN6hermes2vm18arrayPrototypeFindEPvRNS0_7RuntimeENS0_10NativeArgsE(ptr noundef %ctx, ptr noundef nonnull align 8 dereferenceable(9832) %runtime, ptr noundef %args) #0 {
entry:
  %retval = alloca %"class.hermes::vm::CallResult", align 8
  %ctx.addr = alloca ptr, align 8
  %runtime.addr = alloca ptr, align 8
  %args.indirect_addr = alloca ptr, align 8
  %agg.tmp = alloca %"class.hermes::vm::NativeArgs", align 8
  store ptr %ctx, ptr %ctx.addr, align 8
  store ptr %runtime, ptr %runtime.addr, align 8
  store ptr %args, ptr %args.indirect_addr, align 8
  %0 = load ptr, ptr %ctx.addr, align 8
  %1 = load ptr, ptr %runtime.addr, align 8
  call void @_ZN6hermes2vm10NativeArgsC2ERKS1_(ptr noundef nonnull align 8 dereferenceable(24) %agg.tmp, ptr noundef nonnull align 8 dereferenceable(24) %args) #10
  %call = call { i32, i64 } @_ZN6hermes2vmL10findHelperEPvbRNS0_7RuntimeENS0_10NativeArgsE(ptr noundef %0, i1 noundef zeroext false, ptr noundef nonnull align 8 dereferenceable(9832) %1, ptr noundef %agg.tmp)
  %2 = getelementptr inbounds { i32, i64 }, ptr %retval, i32 0, i32 0
  %3 = extractvalue { i32, i64 } %call, 0
  store i32 %3, ptr %2, align 8
  %4 = getelementptr inbounds { i32, i64 }, ptr %retval, i32 0, i32 1
  %5 = extractvalue { i32, i64 } %call, 1
  store i64 %5, ptr %4, align 8
  %6 = load { i32, i64 }, ptr %retval, align 8
  ret { i32, i64 } %6
}